; ModuleID = 'source-C-CXX/22/820.c'
source_filename = "source-C-CXX/22/820.c"
target datalayout = "e-m:e-p270:32:32-p271:32:32-p272:64:64-i64:64-f80:128-n8:16:32:64-S128"
target triple = "x86_64-pc-linux-gnu"

; Function Attrs: nounwind sspstrong uwtable
define dso_local i32 @main() local_unnamed_addr #0 {
  %1 = alloca [100 x i8], align 16
  %2 = getelementptr inbounds [100 x i8], [100 x i8]* %1, i64 0, i64 0
  call void @llvm.lifetime.start.p0i8(i64 100, i8* nonnull %2) #5
  %3 = call i32 (i8*, ...) bitcast (i32 (...)* @gets to i32 (i8*, ...)*)(i8* nonnull %2) #5
  %4 = call i64 @strlen(i8* noundef nonnull %2) #6
  %5 = trunc i64 %4 to i32
  %6 = icmp sgt i32 %5, -1
  br i1 %6, label %7, label %26

7:                                                ; preds = %0
  %8 = and i64 %4, 4294967295
  %9 = getelementptr inbounds [100 x i8], [100 x i8]* %1, i64 0, i64 %8
  br label %10

10:                                               ; preds = %7, %23
  %11 = phi i8* [ %24, %23 ], [ %9, %7 ]
  %12 = load i8, i8* %11, align 1, !tbaa !5
  %13 = icmp eq i8 %12, 32
  br i1 %13, label %14, label %23

14:                                               ; preds = %10, %18
  %15 = phi i8* [ %16, %18 ], [ %11, %10 ]
  %16 = getelementptr inbounds i8, i8* %15, i64 1
  %17 = load i8, i8* %16, align 1, !tbaa !5
  switch i8 %17, label %18 [
    i8 32, label %21
    i8 0, label %21
  ]

18:                                               ; preds = %14
  %19 = sext i8 %17 to i32
  %20 = call i32 @putchar(i32 %19)
  br label %14, !llvm.loop !8

21:                                               ; preds = %14, %14
  %22 = call i32 @putchar(i32 32)
  br label %23

23:                                               ; preds = %10, %21
  %24 = getelementptr inbounds i8, i8* %11, i64 -1
  %25 = icmp ult i8* %24, %2
  br i1 %25, label %26, label %10, !llvm.loop !10

26:                                               ; preds = %23, %0
  br label %27

27:                                               ; preds = %26, %30
  %28 = phi i8* [ %33, %30 ], [ %2, %26 ]
  %29 = load i8, i8* %28, align 1, !tbaa !5
  switch i8 %29, label %30 [
    i8 32, label %34
    i8 0, label %34
  ]

30:                                               ; preds = %27
  %31 = sext i8 %29 to i32
  %32 = call i32 @putchar(i32 %31)
  %33 = getelementptr inbounds i8, i8* %28, i64 1
  br label %27, !llvm.loop !11

34:                                               ; preds = %27, %27
  call void @llvm.lifetime.end.p0i8(i64 100, i8* nonnull %2) #5
  ret i32 0
}

; Function Attrs: argmemonly mustprogress nofree nosync nounwind willreturn
declare void @llvm.lifetime.start.p0i8(i64 immarg, i8* nocapture) #1

declare i32 @gets(...) local_unnamed_addr #2

; Function Attrs: argmemonly mustprogress nofree nounwind readonly willreturn
declare i64 @strlen(i8* nocapture) local_unnamed_addr #3

; Function Attrs: argmemonly mustprogress nofree nosync nounwind willreturn
declare void @llvm.lifetime.end.p0i8(i64 immarg, i8* nocapture) #1

; Function Attrs: nofree nounwind
declare noundef i32 @putchar(i32 noundef) local_unnamed_addr #4


!llvm.module.flags = !{!0, !1, !2, !3}
!llvm.ident = !{!4}

!0 = !{i32 1, !"wchar_size", i32 4}
!1 = !{i32 7, !"PIC Level", i32 2}
!2 = !{i32 7, !"PIE Level", i32 2}
!3 = !{i32 7, !"uwtable", i32 1}
!4 = !{!"clang version 13.0.0"}
!5 = !{!6, !6, i64 0}
!6 = !{!"omnipotent char", !7, i64 0}
!7 = !{!"Simple C/C++ TBAA"}
!8 = distinct !{!8, !9}
!9 = !{!"llvm.loop.mustprogress"}
!10 = distinct !{!10, !9}
!11 = distinct !{!11, !9}
